target datalayout = "e-m:e-p270:32:32-p271:32:32-p272:64:64-i64:64-i128:128-f80:128-n8:16:32:64-S128"
target triple = "x86_64-pc-linux-gnu"

%struct.DataBuffer = type { i64, i32, i32, ptr }

; Function Attrs: mustprogress nounwind uwtable
define internal noundef i32 @_ZL11receivebitsP10DataBufferi(ptr noundef %0, i32 noundef %1) #3 {
  %3 = alloca ptr, align 8
  %4 = alloca i32, align 4
  %5 = alloca i32, align 4
  %6 = alloca i32, align 4
  %7 = alloca i32, align 4
  %8 = alloca i32, align 4
  store ptr %0, ptr %3, align 8, !tbaa !56
  store i32 %1, ptr %4, align 4, !tbaa !13
  call void @llvm.lifetime.start.p0(i64 4, ptr %5) #11
  call void @llvm.lifetime.start.p0(i64 4, ptr %6) #11
  call void @llvm.lifetime.start.p0(i64 4, ptr %7) #11
  call void @llvm.lifetime.start.p0(i64 4, ptr %8) #11
  %9 = load i32, ptr %4, align 4, !tbaa !13
  %10 = shl i32 1, %9
  %11 = sub nsw i32 %10, 1
  store i32 %11, ptr %8, align 4, !tbaa !13
  %12 = load ptr, ptr %3, align 8, !tbaa !56
  %13 = getelementptr inbounds nuw %struct.DataBuffer, ptr %12, i32 0, i32 1
  %14 = load i32, ptr %13, align 8, !tbaa !40
  store i32 %14, ptr %6, align 4, !tbaa !13
  %15 = load ptr, ptr %3, align 8, !tbaa !56
  %16 = getelementptr inbounds nuw %struct.DataBuffer, ptr %15, i32 0, i32 2
  %17 = load i32, ptr %16, align 4, !tbaa !41
  store i32 %17, ptr %7, align 4, !tbaa !13
  store i32 0, ptr %5, align 4, !tbaa !13
  br label %18

18:                                               ; preds = %21, %2
  %19 = load i32, ptr %4, align 4, !tbaa !13
  %20 = icmp sge i32 %19, 8
  br i1 %20, label %21, label %45

21:                                               ; preds = %18
  %22 = load i32, ptr %7, align 4, !tbaa !13
  %23 = shl i32 %22, 8
  %24 = load ptr, ptr %3, align 8, !tbaa !56
  %25 = getelementptr inbounds nuw %struct.DataBuffer, ptr %24, i32 0, i32 3
  %26 = load ptr, ptr %25, align 8, !tbaa !37
  %27 = load ptr, ptr %3, align 8, !tbaa !56
  %28 = getelementptr inbounds nuw %struct.DataBuffer, ptr %27, i32 0, i32 0
  %29 = load i64, ptr %28, align 8, !tbaa !39
  %30 = add i64 %29, 1
  store i64 %30, ptr %28, align 8, !tbaa !39
  %31 = getelementptr inbounds nuw i8, ptr %26, i64 %29
  %32 = load i8, ptr %31, align 1, !tbaa !58
  %33 = zext i8 %32 to i32
  %34 = or i32 %23, %33
  store i32 %34, ptr %7, align 4, !tbaa !13
  %35 = load i32, ptr %7, align 4, !tbaa !13
  %36 = load i32, ptr %6, align 4, !tbaa !13
  %37 = lshr i32 %35, %36
  %38 = load i32, ptr %4, align 4, !tbaa !13
  %39 = sub nsw i32 %38, 8
  %40 = shl i32 %37, %39
  %41 = load i32, ptr %5, align 4, !tbaa !13
  %42 = or i32 %41, %40
  store i32 %42, ptr %5, align 4, !tbaa !13
  %43 = load i32, ptr %4, align 4, !tbaa !13
  %44 = sub nsw i32 %43, 8
  store i32 %44, ptr %4, align 4, !tbaa !13
  br label %18, !llvm.loop !68

45:                                               ; preds = %18
  %46 = load i32, ptr %4, align 4, !tbaa !13
  %47 = icmp sgt i32 %46, 0
  br i1 %47, label %48, label %81

48:                                               ; preds = %45
  %49 = load i32, ptr %6, align 4, !tbaa !13
  %50 = load i32, ptr %4, align 4, !tbaa !13
  %51 = icmp slt i32 %49, %50
  br i1 %51, label %52, label %68

52:                                               ; preds = %48
  %53 = load i32, ptr %6, align 4, !tbaa !13
  %54 = add nsw i32 %53, 8
  store i32 %54, ptr %6, align 4, !tbaa !13
  %55 = load i32, ptr %7, align 4, !tbaa !13
  %56 = shl i32 %55, 8
  %57 = load ptr, ptr %3, align 8, !tbaa !56
  %58 = getelementptr inbounds nuw %struct.DataBuffer, ptr %57, i32 0, i32 3
  %59 = load ptr, ptr %58, align 8, !tbaa !37
  %60 = load ptr, ptr %3, align 8, !tbaa !56
  %61 = getelementptr inbounds nuw %struct.DataBuffer, ptr %60, i32 0, i32 0
  %62 = load i64, ptr %61, align 8, !tbaa !39
  %63 = add i64 %62, 1
  store i64 %63, ptr %61, align 8, !tbaa !39
  %64 = getelementptr inbounds nuw i8, ptr %59, i64 %62
  %65 = load i8, ptr %64, align 1, !tbaa !58
  %66 = zext i8 %65 to i32
  %67 = or i32 %56, %66
  store i32 %67, ptr %7, align 4, !tbaa !13
  br label %68

68:                                               ; preds = %52, %48
  %69 = load i32, ptr %4, align 4, !tbaa !13
  %70 = load i32, ptr %6, align 4, !tbaa !13
  %71 = sub nsw i32 %70, %69
  store i32 %71, ptr %6, align 4, !tbaa !13
  %72 = load i32, ptr %7, align 4, !tbaa !13
  %73 = load i32, ptr %6, align 4, !tbaa !13
  %74 = lshr i32 %72, %73
  %75 = load i32, ptr %4, align 4, !tbaa !13
  %76 = shl i32 1, %75
  %77 = sub nsw i32 %76, 1
  %78 = and i32 %74, %77
  %79 = load i32, ptr %5, align 4, !tbaa !13
  %80 = or i32 %79, %78
  store i32 %80, ptr %5, align 4, !tbaa !13
  br label %81

81:                                               ; preds = %68, %45
  %82 = load i32, ptr %8, align 4, !tbaa !13
  %83 = load i32, ptr %5, align 4, !tbaa !13
  %84 = and i32 %83, %82
  store i32 %84, ptr %5, align 4, !tbaa !13
  %85 = load i32, ptr %6, align 4, !tbaa !13
  %86 = load ptr, ptr %3, align 8, !tbaa !56
  %87 = getelementptr inbounds nuw %struct.DataBuffer, ptr %86, i32 0, i32 1
  store i32 %85, ptr %87, align 8, !tbaa !40
  %88 = load i32, ptr %7, align 4, !tbaa !13
  %89 = load ptr, ptr %3, align 8, !tbaa !56
  %90 = getelementptr inbounds nuw %struct.DataBuffer, ptr %89, i32 0, i32 2
  store i32 %88, ptr %90, align 4, !tbaa !41
  %91 = load i32, ptr %5, align 4, !tbaa !13
  call void @llvm.lifetime.end.p0(i64 4, ptr %8) #11
  call void @llvm.lifetime.end.p0(i64 4, ptr %7) #11
  call void @llvm.lifetime.end.p0(i64 4, ptr %6) #11
  call void @llvm.lifetime.end.p0(i64 4, ptr %5) #11
  ret i32 %91
}