; Function Attrs: mustprogress nofree norecurse nosync nounwind memory(read, argmem: readwrite, inaccessiblemem: none) uwtable
define internal fastcc noundef range(i32 0, -2147483648) i32 @_ZL11receivebitsP10DataBufferi(ptr noundef nonnull captures(none) %0, i32 noundef %1) unnamed_addr #12 {
  %3 = getelementptr inbounds nuw i8, ptr %0, i64 8
  %4 = load i32, ptr %3, align 8, !tbaa !26
  %5 = getelementptr inbounds nuw i8, ptr %0, i64 12
  %6 = load i32, ptr %5, align 4, !tbaa !27
  %7 = icmp sgt i32 %1, 7
  br i1 %7, label %.lr.ph, label %._crit_edge

.lr.ph:                                           ; preds = %2
  %8 = getelementptr inbounds nuw i8, ptr %0, i64 16
  %9 = load ptr, ptr %8, align 8, !tbaa !17
  %.promoted = load i64, ptr %0, align 8, !tbaa !28
  br label %10

10:                                               ; preds = %.lr.ph, %10
  %11 = phi i64 [ %.promoted, %.lr.ph ], [ %13, %10 ]
  %.041 = phi i32 [ %1, %.lr.ph ], [ %19, %10 ]
  %.03140 = phi i32 [ %6, %.lr.ph ], [ %17, %10 ]
  %.03439 = phi i32 [ 0, %.lr.ph ], [ %21, %10 ]
  %12 = shl i32 %.03140, 8
  %13 = add i64 %11, 1
  store i64 %13, ptr %0, align 8, !tbaa !28
  %14 = getelementptr inbounds nuw i8, ptr %9, i64 %11
  %15 = load i8, ptr %14, align 1, !tbaa !29
  %16 = zext i8 %15 to i32
  %17 = or disjoint i32 %12, %16
  %18 = lshr i32 %17, %4
  %19 = add nsw i32 %.041, -8
  %20 = shl i32 %18, %19
  %21 = or i32 %20, %.03439
  %22 = icmp samesign ugt i32 %.041, 15
  br i1 %22, label %10, label %._crit_edge, !llvm.loop !48

._crit_edge:                                      ; preds = %10, %2
  %.034.lcssa = phi i32 [ 0, %2 ], [ %21, %10 ]
  %.031.lcssa = phi i32 [ %6, %2 ], [ %17, %10 ]
  %.0.lcssa = phi i32 [ %1, %2 ], [ %19, %10 ]
  %23 = icmp sgt i32 %.0.lcssa, 0
  br i1 %23, label %24, label %43

24:                                               ; preds = %._crit_edge
  %25 = icmp slt i32 %4, %.0.lcssa
  br i1 %25, label %26, label %37

26:                                               ; preds = %24
  %27 = add nsw i32 %4, 8
  %28 = shl i32 %.031.lcssa, 8
  %29 = getelementptr inbounds nuw i8, ptr %0, i64 16
  %30 = load ptr, ptr %29, align 8, !tbaa !17
  %31 = load i64, ptr %0, align 8, !tbaa !28
  %32 = add i64 %31, 1
  store i64 %32, ptr %0, align 8, !tbaa !28
  %33 = getelementptr inbounds nuw i8, ptr %30, i64 %31
  %34 = load i8, ptr %33, align 1, !tbaa !29
  %35 = zext i8 %34 to i32
  %36 = or disjoint i32 %28, %35
  br label %37

37:                                               ; preds = %26, %24
  %.133 = phi i32 [ %27, %26 ], [ %4, %24 ]
  %.2 = phi i32 [ %36, %26 ], [ %.031.lcssa, %24 ]
  %38 = sub nsw i32 %.133, %.0.lcssa
  %39 = lshr i32 %.2, %38
  %notmask38 = shl nsw i32 -1, %.0.lcssa
  %40 = xor i32 %notmask38, -1
  %41 = and i32 %39, %40
  %42 = or i32 %41, %.034.lcssa
  br label %43

43:                                               ; preds = %37, %._crit_edge
  %.135 = phi i32 [ %42, %37 ], [ %.034.lcssa, %._crit_edge ]
  %.032 = phi i32 [ %38, %37 ], [ %4, %._crit_edge ]
  %.1 = phi i32 [ %.2, %37 ], [ %.031.lcssa, %._crit_edge ]
  %notmask = shl nsw i32 -1, %1
  %44 = xor i32 %notmask, -1
  %45 = and i32 %.135, %44
  store i32 %.032, ptr %3, align 8, !tbaa !26
  store i32 %.1, ptr %5, align 4, !tbaa !27
  ret i32 %45
}